target datalayout = "e-m:e-p270:32:32-p271:32:32-p272:64:64-i64:64-i128:128-f80:128-n8:16:32:64-S128"
target triple = "x86_64-pc-linux-gnu"

%"class.std::__cxx11::basic_string" = type { %"struct.std::__cxx11::basic_string<char>::_Alloc_hider", i64, %union.anon }
%"struct.std::__cxx11::basic_string<char>::_Alloc_hider" = type { ptr }
%union.anon = type { i64, [8 x i8] }
%"struct.google::protobuf::strings::AlphaNum" = type { ptr, i64, [32 x i8] }
%"struct.google::protobuf::strings::Hex" = type <{ i64, i32, [4 x i8] }>

@.str.1 = private unnamed_addr constant [18 x i8] c"MessageLite at 0x\00", align 1

; Function Attrs: mustprogress nounwind uwtable
define linkonce_odr void @_ZN6google8protobuf7strings3HexC2ImEET_NS1_7PadSpecE(ptr noundef nonnull align 8 dereferenceable(12) %0, i64 noundef %1, i32 noundef %2) unnamed_addr #5 comdat align 2 {
  %4 = alloca ptr, align 8
  %5 = alloca i64, align 8
  %6 = alloca i32, align 4
  store ptr %0, ptr %4, align 8
  store i64 %1, ptr %5, align 8
  store i32 %2, ptr %6, align 4
  %7 = load ptr, ptr %4, align 8
  %8 = getelementptr inbounds %"struct.google::protobuf::strings::Hex", ptr %7, i32 0, i32 1
  %9 = load i32, ptr %6, align 4
  store i32 %9, ptr %8, align 8
  %10 = load i64, ptr %5, align 8
  %11 = getelementptr inbounds %"struct.google::protobuf::strings::Hex", ptr %7, i32 0, i32 0
  store i64 %10, ptr %11, align 8
  ret void
}

; Function Attrs: mustprogress nounwind uwtable
define linkonce_odr void @_ZN6google8protobuf7strings8AlphaNumC2EPKc(ptr noundef nonnull align 8 dereferenceable(48) %0, ptr noundef %1) unnamed_addr #5 comdat align 2 {
  %3 = alloca ptr, align 8
  %4 = alloca ptr, align 8
  store ptr %0, ptr %3, align 8
  store ptr %1, ptr %4, align 8
  %5 = load ptr, ptr %3, align 8
  %6 = getelementptr inbounds %"struct.google::protobuf::strings::AlphaNum", ptr %5, i32 0, i32 0
  %7 = load ptr, ptr %4, align 8
  store ptr %7, ptr %6, align 8
  %8 = getelementptr inbounds %"struct.google::protobuf::strings::AlphaNum", ptr %5, i32 0, i32 1
  %9 = load ptr, ptr %4, align 8
  %10 = call i64 @strlen(ptr noundef %9) #15
  store i64 %10, ptr %8, align 8
  ret void
}

; Function Attrs: mustprogress uwtable
define void @_ZNK6google8protobuf11MessageLite11DebugStringB5cxx11Ev(ptr dead_on_unwind noalias writable sret(%"class.std::__cxx11::basic_string") align 8 %0, ptr noundef nonnull align 8 dereferenceable(16) %1) #4 align 2 {
  %3 = alloca ptr, align 8
  %4 = alloca ptr, align 8
  %5 = alloca i64, align 8
  %6 = alloca %"struct.google::protobuf::strings::AlphaNum", align 8
  %7 = alloca %"struct.google::protobuf::strings::AlphaNum", align 8
  %8 = alloca %"struct.google::protobuf::strings::Hex", align 8
  store ptr %0, ptr %3, align 8
  store ptr %1, ptr %4, align 8
  %9 = load ptr, ptr %4, align 8
  %10 = ptrtoint ptr %9 to i64
  store i64 %10, ptr %5, align 8
  call void @_ZN6google8protobuf7strings8AlphaNumC2EPKc(ptr noundef nonnull align 8 dereferenceable(48) %6, ptr noundef @.str.1)
  %11 = load i64, ptr %5, align 8
  call void @_ZN6google8protobuf7strings3HexC2ImEET_NS1_7PadSpecE(ptr noundef nonnull align 8 dereferenceable(12) %8, i64 noundef %11, i32 noundef 1)
  %12 = getelementptr inbounds { i64, i32 }, ptr %8, i32 0, i32 0
  %13 = load i64, ptr %12, align 8
  %14 = getelementptr inbounds { i64, i32 }, ptr %8, i32 0, i32 1
  %15 = load i32, ptr %14, align 8
  call void @_ZN6google8protobuf7strings8AlphaNumC1ENS1_3HexE(ptr noundef nonnull align 8 dereferenceable(48) %7, i64 %13, i32 %15)
  call void @_ZN6google8protobuf6StrCatB5cxx11ERKNS0_7strings8AlphaNumES4_(ptr dead_on_unwind writable sret(%"class.std::__cxx11::basic_string") align 8 %0, ptr noundef nonnull align 8 dereferenceable(48) %6, ptr noundef nonnull align 8 dereferenceable(48) %7)
  ret void
}