; Function Attrs: mustprogress uwtable
define void @_ZNK6google8protobuf11MessageLite11DebugStringB5cxx11Ev(ptr dead_on_unwind noalias writable sret(%"class.std::__cxx11::basic_string") align 8 %0, ptr noundef nonnull align 8 dereferenceable(16) %1) local_unnamed_addr #3 align 2 {
  %3 = alloca %"struct.google::protobuf::strings::AlphaNum", align 8
  %4 = alloca %"struct.google::protobuf::strings::AlphaNum", align 8
  %5 = ptrtoint ptr %1 to i64
  store ptr @.str.1, ptr %3, align 8
  %6 = getelementptr inbounds i8, ptr %3, i64 8
  store i64 17, ptr %6, align 8
  call void @_ZN6google8protobuf7strings8AlphaNumC1ENS1_3HexE(ptr noundef nonnull align 8 dereferenceable(48) %4, i64 %5, i32 1)
  call void @_ZN6google8protobuf6StrCatB5cxx11ERKNS0_7strings8AlphaNumES4_(ptr dead_on_unwind writable sret(%"class.std::__cxx11::basic_string") align 8 %0, ptr noundef nonnull align 8 dereferenceable(48) %3, ptr noundef nonnull align 8 dereferenceable(48) %4)
  ret void
}